Certificate:
    Data:
        Version: 3 (0x2)
        Serial Number: 1 (0x1)
        Signature Algorithm: sha1WithRSAEncryption
        Issuer: C=AU, ST=Some-State, O=Internet Widgits Pty Ltd
        Validity
            Not Before: Mar  9 02:24:02 2015 GMT
            Not After : Mar  8 02:24:02 2020 GMT
        Subject: C=AU, ST=Some-State, O=Internet Widgits Pty Ltd
        Subject Public Key Info:
            Public Key Algorithm: rsaEncryption
            RSA Public Key: (2048 bit)
                Modulus (2048 bit):
                    00:e1:80:88:97:db:4d:a7:9d:f5:d6:d2:be:7e:1a:
                    29:b7:e1:fd:4a:28:d7:63:79:42:86:f0:1c:f4:8a:
                    b5:b0:0e:e4:08:7d:e8:8d:20:85:ec:f6:9a:f5:fe:
                    8e:d6:b6:30:18:9a:6b:b1:1a:8f:33:4a:fc:34:0e:
                    83:3a:91:f9:16:d5:a8:51:62:97:79:7a:46:34:81:
                    dc:f8:ec:b5:bd:0b:96:c1:df:c4:20:70:96:ca:f8:
                    57:5f:9a:52:93:45:5d:75:e5:02:32:78:be:6a:b7:
                    da:7c:cd:29:c8:e2:a7:49:1c:64:c1:41:a0:ad:87:
                    be:f8:41:46:3b:17:e7:8d:a1:cd:3b:e1:c9:ec:30:
                    1f:87:04:9c:cc:ee:80:c9:8f:3f:03:96:32:45:a3:
                    0a:0f:83:b1:8e:bb:02:d6:c4:ef:15:d8:4e:ba:68:
                    1e:b0:6d:1a:d2:7c:9a:0a:55:30:a2:51:02:ff:e8:
                    50:78:fa:df:94:60:ae:96:2a:a7:58:7c:1e:8e:15:
                    16:0d:b5:90:b4:5e:f6:65:57:68:e8:0c:ab:c3:5c:
                    02:ca:28:b3:18:bb:d6:cd:2c:e2:f8:f0:a5:f3:7b:
                    34:0a:10:aa:f3:e6:8f:98:75:48:4e:b3:78:40:ce:
                    e2:80:d1:c2:54:51:71:c1:0c:08:68:64:d9:ee:d7:
                    a0:5f
                Exponent: 65537 (0x10001)
        X509v3 extensions:
            X509v3 Basic Constraints: 
                CA:TRUE
            X509v3 Subject Key Identifier: 
                C4:11:A1:C9:F1:45:B5:19:A7:98:56:B0:BE:3F:7D:47:DC:C0:1C:B4
            X509v3 Authority Key Identifier: 
                keyid:C4:11:A1:C9:F1:45:B5:19:A7:98:56:B0:BE:3F:7D:47:DC:C0:1C:B4
                DirName:/C=AU/ST=Some-State/O=Internet Widgits Pty Ltd
                serial:01

    Signature Algorithm: sha1WithRSAEncryption
        4b:ba:fa:73:f5:b7:c7:7c:e1:9b:59:1c:36:cb:b5:9b:65:22:
        22:cf:6d:72:ff:f9:9b:1f:b5:ff:44:19:9d:1e:13:40:8d:e4:
        9b:be:51:fa:49:21:61:7d:70:80:90:2c:6c:a6:34:d1:e0:18:
        fd:ae:01:1a:97:65:4b:50:42:ad:e4:c0:80:5c:0f:c5:80:87:
        c4:3d:e4:ad:f2:2f:d3:81:14:51:da:c7:39:83:eb:fe:a5:af:
        ce:b4:12:95:c9:25:3c:6f:f9:ae:af:70:d7:d6:0d:85:d6:6a:
        c3:e8:69:e0:8b:fb:20:6b:09:81:61:fb:40:c4:31:0f:3e:46:
        2b:ec:01:f0:2f:76:99:d9:6b:8f:5a:cb:a4:0d:f6:e9:93:72:
        b1:9f:8c:c1:3a:0d:25:7e:00:ae:74:4e:18:9f:ac:c8:b4:5d:
        90:c5:a4:f4:fc:16:da:31:16:74:33:b6:54:02:55:be:3a:97:
        43:ce:d3:18:55:92:be:9d:20:e2:12:b9:e7:db:f4:90:5d:6e:
        cb:cc:a9:59:da:7d:f0:c3:14:d3:3d:38:e6:d8:8d:db:22:9c:
        f0:8f:fb:e8:e9:da:0a:81:9b:7c:0c:36:ff:f7:a8:80:7a:dd:
        94:4c:c9:64:a0:0d:77:ca:7d:65:15:7f:ca:30:3a:72:2a:b8:
        b8:4e:7d:5e
-----BEGIN CERTIFICATE-----
MIIDpTCCAo2gAwIBAgIBATANBgkqhkiG9w0BAQUFADBFMQswCQYDVQQGEwJBVTET
MBEGA1UECBMKU29tZS1TdGF0ZTEhMB8GA1UEChMYSW50ZXJuZXQgV2lkZ2l0cyBQ
dHkgTHRkMB4XDTE1MDMwOTAyMjQwMloXDTIwMDMwODAyMjQwMlowRTELMAkGA1UE
BhMCQVUxEzARBgNVBAgTClNvbWUtU3RhdGUxITAfBgNVBAoTGEludGVybmV0IFdp
ZGdpdHMgUHR5IEx0ZDCCASIwDQYJKoZIhvcNAQEBBQADggEPADCCAQoCggEBAOGA
iJfbTaed9dbSvn4aKbfh/Uoo12N5QobwHPSKtbAO5Ah96I0ghez2mvX+jta2MBia
a7EajzNK/DQOgzqR+RbVqFFil3l6RjSB3Pjstb0LlsHfxCBwlsr4V1+aUpNFXXXl
AjJ4vmq32nzNKcjip0kcZMFBoK2HvvhBRjsX542hzTvhyewwH4cEnMzugMmPPwOW
MkWjCg+DsY67AtbE7xXYTrpoHrBtGtJ8mgpVMKJRAv/oUHj635RgrpYqp1h8Ho4V
Fg21kLRe9mVXaOgMq8NcAsoosxi71s0s4vjwpfN7NAoQqvPmj5h1SE6zeEDO4oDR
wlRRccEMCGhk2e7XoF8CAwEAAaOBnzCBnDAMBgNVHRMEBTADAQH/MB0GA1UdDgQW
BBTEEaHJ8UW1GaeYVrC+P31H3MActDBtBgNVHSMEZjBkgBTEEaHJ8UW1GaeYVrC+
P31H3MActKFJpEcwRTELMAkGA1UEBhMCQVUxEzARBgNVBAgTClNvbWUtU3RhdGUx
ITAfBgNVBAoTGEludGVybmV0IFdpZGdpdHMgUHR5IEx0ZIIBATANBgkqhkiG9w0B
AQUFAAOCAQEAS7r6c/W3x3zhm1kcNsu1m2UiIs9tcv/5mx+1/0QZnR4TQI3km75R
+kkhYX1wgJAsbKY00eAY/a4BGpdlS1BCreTAgFwPxYCHxD3krfIv04EUUdrHOYPr
/qWvzrQSlcklPG/5rq9w19YNhdZqw+hp4Iv7IGsJgWH7QMQxDz5GK+wB8C92mdlr
j1rLpA326ZNysZ+MwToNJX4ArnROGJ+syLRdkMWk9PwW2jEWdDO2VAJVvjqXQ87T
GFWSvp0g4hK559v0kF1uy8ypWdp98MMU0z045tiN2yKc8I/76OnaCoGbfAw2//eo
gHrdlEzJZKANd8p9ZRV/yjA6ciq4uE59Xg==
-----END CERTIFICATE-----
