Certificate:
    Data:
        Version: 3 (0x2)
        Serial Number: 2 (0x2)
        Signature Algorithm: sha1WithRSAEncryption
        Issuer: C=AU, ST=Some-State, O=Internet Widgits Pty Ltd
        Validity
            Not Before: Mar  8 00:00:00 2015 GMT
            Not After : Mar  9 04:00:00 2015 GMT
        Subject: CN=localhost
        Subject Public Key Info:
            Public Key Algorithm: rsaEncryption
            RSA Public Key: (2048 bit)
                Modulus (2048 bit):
                    00:a1:ee:12:3a:5a:14:e0:b3:fc:6b:4f:8b:ca:39:
                    90:4f:c8:10:00:3e:47:43:c1:95:0b:5d:d5:1d:71:
                    4c:82:01:a5:2e:ac:18:96:36:81:9c:28:48:26:94:
                    ce:79:20:7e:66:be:42:9a:cb:c1:50:22:9c:f0:c2:
                    b8:d1:16:f9:18:76:fa:94:07:f9:cd:45:6d:b1:64:
                    fb:41:0e:7f:5e:7a:7d:49:35:ce:c6:a5:a2:1d:84:
                    3a:f1:78:7b:a9:21:d3:1f:de:d5:14:de:c9:91:00:
                    78:20:43:00:97:b1:8c:c2:d2:12:41:f2:24:37:7e:
                    7a:df:d5:84:23:84:99:e3:94:3a:26:3c:70:32:a8:
                    7a:03:cf:80:bf:de:df:8b:13:0f:10:f1:80:54:20:
                    4c:e9:87:d6:07:53:75:98:80:d7:6d:8b:39:c6:5e:
                    df:cc:85:16:e6:be:e3:c9:c7:96:c0:98:9d:8e:25:
                    37:45:29:bf:5f:1a:30:84:5a:40:4a:71:9f:bd:31:
                    7e:20:93:dd:82:03:7f:dd:4a:a9:be:92:be:d6:f5:
                    3e:75:4c:40:eb:3c:2d:51:0d:42:54:1b:11:78:37:
                    0e:94:ae:48:21:0d:8a:36:ac:06:47:df:ae:78:cf:
                    98:ee:73:d2:df:19:4d:90:8b:52:3c:1c:3a:c6:c1:
                    5d:cb
                Exponent: 65537 (0x10001)
        X509v3 extensions:
            X509v3 Basic Constraints: 
                CA:FALSE
            X509v3 Extended Key Usage: 
                TLS Web Server Authentication
    Signature Algorithm: sha1WithRSAEncryption
        97:9a:9e:fc:ed:47:bd:cf:3f:5c:2a:83:1f:01:c4:7d:cd:c9:
        15:04:a6:5b:1b:3c:db:f9:d8:be:bc:6a:36:e7:6a:20:ad:d6:
        82:f1:d4:4e:04:5e:c5:2b:da:41:5d:30:20:c3:50:70:bf:c5:
        5d:97:de:bd:cc:67:54:da:81:30:15:27:7d:5c:05:6b:bd:01:
        4c:d6:0f:bf:da:9b:9e:ba:ad:dd:9f:70:1e:c4:fa:af:06:32:
        31:ee:4b:63:7f:4a:c2:27:fb:8e:2e:f5:21:43:1a:07:82:93:
        96:2f:8a:4e:25:72:4f:4f:04:05:c8:96:c6:4e:4e:f3:87:1e:
        79:27:72:ea:0b:54:b2:ea:05:1e:47:72:37:ab:b8:86:b3:8f:
        f3:7c:ec:32:ed:01:3a:d1:cf:dd:07:7c:4a:1e:f1:9c:ee:1f:
        d4:4a:8c:1d:7a:a7:b4:86:f2:e7:5c:f9:aa:2d:3d:63:14:da:
        e5:46:ae:43:e6:49:1f:3e:06:48:15:3e:69:71:fb:dc:46:52:
        ee:b1:f0:d3:43:c3:1a:90:0e:da:a1:3e:75:9c:29:6e:69:9a:
        21:24:e6:86:e2:86:f7:24:d7:fa:52:d5:02:be:31:01:44:46:
        18:3b:ce:b0:1a:9e:02:04:c3:35:44:3c:58:1b:db:28:5c:12:
        81:41:8a:17
-----BEGIN CERTIFICATE-----
MIIC9jCCAd6gAwIBAgIBAjANBgkqhkiG9w0BAQUFADBFMQswCQYDVQQGEwJBVTET
MBEGA1UECBMKU29tZS1TdGF0ZTEhMB8GA1UEChMYSW50ZXJuZXQgV2lkZ2l0cyBQ
dHkgTHRkMB4XDTE1MDMwODAwMDAwMFoXDTE1MDMwOTA0MDAwMFowFDESMBAGA1UE
AxMJbG9jYWxob3N0MIIBIjANBgkqhkiG9w0BAQEFAAOCAQ8AMIIBCgKCAQEAoe4S
OloU4LP8a0+LyjmQT8gQAD5HQ8GVC13VHXFMggGlLqwYljaBnChIJpTOeSB+Zr5C
msvBUCKc8MK40Rb5GHb6lAf5zUVtsWT7QQ5/Xnp9STXOxqWiHYQ68Xh7qSHTH97V
FN7JkQB4IEMAl7GMwtISQfIkN35639WEI4SZ45Q6JjxwMqh6A8+Av97fixMPEPGA
VCBM6YfWB1N1mIDXbYs5xl7fzIUW5r7jyceWwJidjiU3RSm/XxowhFpASnGfvTF+
IJPdggN/3UqpvpK+1vU+dUxA6zwtUQ1CVBsReDcOlK5IIQ2KNqwGR9+ueM+Y7nPS
3xlNkItSPBw6xsFdywIDAQABoyIwIDAJBgNVHRMEAjAAMBMGA1UdJQQMMAoGCCsG
AQUFBwMBMA0GCSqGSIb3DQEBBQUAA4IBAQCXmp787Ue9zz9cKoMfAcR9zckVBKZb
Gzzb+di+vGo252ogrdaC8dROBF7FK9pBXTAgw1Bwv8Vdl969zGdU2oEwFSd9XAVr
vQFM1g+/2pueuq3dn3AexPqvBjIx7ktjf0rCJ/uOLvUhQxoHgpOWL4pOJXJPTwQF
yJbGTk7zhx55J3LqC1Sy6gUeR3I3q7iGs4/zfOwy7QE60c/dB3xKHvGc7h/USowd
eqe0hvLnXPmqLT1jFNrlRq5D5kkfPgZIFT5pcfvcRlLusfDTQ8MakA7aoT51nClu
aZohJOaG4ob3JNf6UtUCvjEBREYYO86wGp4CBMM1RDxYG9soXBKBQYoX
-----END CERTIFICATE-----
