Certificate:
    Data:
        Version: 3 (0x2)
        Serial Number: 2 (0x2)
        Signature Algorithm: sha1WithRSAEncryption
        Issuer: C=AU, ST=Some-State, O=Internet Widgits Pty Ltd
        Validity
            Not Before: Mar  8 00:00:00 2015 GMT
            Not After : Mar  9 04:00:00 2015 GMT
        Subject: CN=localhost
        Subject Public Key Info:
            Public Key Algorithm: rsaEncryption
            RSA Public Key: (2048 bit)
                Modulus (2048 bit):
                    00:a1:ee:12:3a:5a:14:e0:b3:fc:6b:4f:8b:ca:39:
                    90:4f:c8:10:00:3e:47:43:c1:95:0b:5d:d5:1d:71:
                    4c:82:01:a5:2e:ac:18:96:36:81:9c:28:48:26:94:
                    ce:79:20:7e:66:be:42:9a:cb:c1:50:22:9c:f0:c2:
                    b8:d1:16:f9:18:76:fa:94:07:f9:cd:45:6d:b1:64:
                    fb:41:0e:7f:5e:7a:7d:49:35:ce:c6:a5:a2:1d:84:
                    3a:f1:78:7b:a9:21:d3:1f:de:d5:14:de:c9:91:00:
                    78:20:43:00:97:b1:8c:c2:d2:12:41:f2:24:37:7e:
                    7a:df:d5:84:23:84:99:e3:94:3a:26:3c:70:32:a8:
                    7a:03:cf:80:bf:de:df:8b:13:0f:10:f1:80:54:20:
                    4c:e9:87:d6:07:53:75:98:80:d7:6d:8b:39:c6:5e:
                    df:cc:85:16:e6:be:e3:c9:c7:96:c0:98:9d:8e:25:
                    37:45:29:bf:5f:1a:30:84:5a:40:4a:71:9f:bd:31:
                    7e:20:93:dd:82:03:7f:dd:4a:a9:be:92:be:d6:f5:
                    3e:75:4c:40:eb:3c:2d:51:0d:42:54:1b:11:78:37:
                    0e:94:ae:48:21:0d:8a:36:ac:06:47:df:ae:78:cf:
                    98:ee:73:d2:df:19:4d:90:8b:52:3c:1c:3a:c6:c1:
                    5d:cb
                Exponent: 65537 (0x10001)
        X509v3 extensions:
            X509v3 Basic Constraints: 
                CA:FALSE
            X509v3 Extended Key Usage: 
                TLS Web Server Authentication
    Signature Algorithm: sha1WithRSAEncryption
        97:9a:9e:fc:ed:47:bd:cf:3f:5c:2a:83:1f:01:c4:7d:cd:c9:
        15:04:a6:5b:1b:3c:db:f9:d8:be:bc:6a:36:e7:6a:20:ad:d6:
        82:f1:d4:4e:04:5e:c5:2b:da:41:5d:30:20:c3:50:70:bf:c5:
        5d:97:de:bd:cc:67:54:da:81:30:15:27:7d:5c:05:6b:bd:01:
        4c:d6:0f:bf:da:9b:9e:ba:ad:dd:9f:70:1e:c4:fa:af:06:32:
        31:ee:4b:63:7f:4a:c2:27:fb:8e:2e:f5:21:43:1a:07:82:93:
        96:2f:8a:4e:25:72:4f:4f:04:05:c8:96:c6:4e:4e:f3:87:1e:
        79:27:72:ea:0b:54:b2:ea:05:1e:47:72:37:ab:b8:86:b3:8f:
        f3:7c:ec:32:ed:01:3a:d1:cf:dd:07:7c:4a:1e:f1:9c:ee:1f:
        d4:4a:8c:1d:7a:a7:b4:86:f2:e7:5c:f9:aa:2d:3d:63:14:da:
        e5:46:ae:43:e6:49:1f:3e:06:48:15:3e:69:71:fb:dc:46:52:
        ee:b1:f0:d3:43:c3:1a:90:0e:da:a1:3e:75:9c:29:6e:69:9a:
        21:24:e6:86:e2:86:f7:24:d7:fa:52:d5:02:be:31:01:44:46:
        18:3b:ce:b0:1a:9e:02:04:c3:35:44:3c:58:1b:db:28:5c:12:
        81:41:8a:17
-----BEGIN CERTIFICATE-----
MIIC9jCCAd6gAwIBAgIBAjANBgkqhkiG9w0BAQUFADBFMQswCQYDVQQGEwJBVTET
MBEGA1UECBMKU29tZS1TdGF0ZTEhMB8GA1UEChMYSW50ZXJuZXQgV2lkZ2l0cyBQ
dHkgTHRkMB4XDTE1MDMwODAwMDAwMFoXDTE1MDMwOTA0MDAwMFowFDESMBAGA1UE
AxMJbG9jYWxob3N0MIIBIjANBgkqhkiG9w0BAQEFAAOCAQ8AMIIBCgKCAQEAoe4S
OloU4LP8a0+LyjmQT8gQAD5HQ8GVC13VHXFMggGlLqwYljaBnChIJpTOeSB+Zr5C
msvBUCKc8MK40Rb5GHb6lAf5zUVtsWT7QQ5/Xnp9STXOxqWiHYQ68Xh7qSHTH97V
FN7JkQB4IEMAl7GMwtISQfIkN35639WEI4SZ45Q6JjxwMqh6A8+Av97fixMPEPGA
VCBM6YfWB1N1mIDXbYs5xl7fzIUW5r7jyceWwJidjiU3RSm/XxowhFpASnGfvTF+
IJPdggN/3UqpvpK+1vU+dUxA6zwtUQ1CVBsReDcOlK5IIQ2KNqwGR9+ueM+Y7nPS
3xlNkItSPBw6xsFdywIDAQABoyIwIDAJBgNVHRMEAjAAMBMGA1UdJQQMMAoGCCsG
AQUFBwMBMA0GCSqGSIb3DQEBBQUAA4IBAQCXmp787Ue9zz9cKoMfAcR9zckVBKZb
Gzzb+di+vGo252ogrdaC8dROBF7FK9pBXTAgw1Bwv8Vdl969zGdU2oEwFSd9XAVr
vQFM1g+/2pueuq3dn3AexPqvBjIx7ktjf0rCJ/uOLvUhQxoHgpOWL4pOJXJPTwQF
yJbGTk7zhx55J3LqC1Sy6gUeR3I3q7iGs4/zfOwy7QE60c/dB3xKHvGc7h/USowd
eqe0hvLnXPmqLT1jFNrlRq5D5kkfPgZIFT5pcfvcRlLusfDTQ8MakA7aoT51nClu
aZohJOaG4ob3JNf6UtUCvjEBREYYO86wGp4CBMM1RDxYG9soXBKBQYoX
-----END CERTIFICATE-----
Certificate:
    Data:
        Version: 3 (0x2)
        Serial Number: 1 (0x1)
        Signature Algorithm: sha1WithRSAEncryption
        Issuer: C=AU, ST=Some-State, O=Internet Widgits Pty Ltd
        Validity
            Not Before: Mar  9 02:24:02 2015 GMT
            Not After : Mar  8 02:24:02 2020 GMT
        Subject: C=AU, ST=Some-State, O=Internet Widgits Pty Ltd
        Subject Public Key Info:
            Public Key Algorithm: rsaEncryption
            RSA Public Key: (2048 bit)
                Modulus (2048 bit):
                    00:e1:80:88:97:db:4d:a7:9d:f5:d6:d2:be:7e:1a:
                    29:b7:e1:fd:4a:28:d7:63:79:42:86:f0:1c:f4:8a:
                    b5:b0:0e:e4:08:7d:e8:8d:20:85:ec:f6:9a:f5:fe:
                    8e:d6:b6:30:18:9a:6b:b1:1a:8f:33:4a:fc:34:0e:
                    83:3a:91:f9:16:d5:a8:51:62:97:79:7a:46:34:81:
                    dc:f8:ec:b5:bd:0b:96:c1:df:c4:20:70:96:ca:f8:
                    57:5f:9a:52:93:45:5d:75:e5:02:32:78:be:6a:b7:
                    da:7c:cd:29:c8:e2:a7:49:1c:64:c1:41:a0:ad:87:
                    be:f8:41:46:3b:17:e7:8d:a1:cd:3b:e1:c9:ec:30:
                    1f:87:04:9c:cc:ee:80:c9:8f:3f:03:96:32:45:a3:
                    0a:0f:83:b1:8e:bb:02:d6:c4:ef:15:d8:4e:ba:68:
                    1e:b0:6d:1a:d2:7c:9a:0a:55:30:a2:51:02:ff:e8:
                    50:78:fa:df:94:60:ae:96:2a:a7:58:7c:1e:8e:15:
                    16:0d:b5:90:b4:5e:f6:65:57:68:e8:0c:ab:c3:5c:
                    02:ca:28:b3:18:bb:d6:cd:2c:e2:f8:f0:a5:f3:7b:
                    34:0a:10:aa:f3:e6:8f:98:75:48:4e:b3:78:40:ce:
                    e2:80:d1:c2:54:51:71:c1:0c:08:68:64:d9:ee:d7:
                    a0:5f
                Exponent: 65537 (0x10001)
        X509v3 extensions:
            X509v3 Basic Constraints: 
                CA:TRUE
            X509v3 Subject Key Identifier: 
                C4:11:A1:C9:F1:45:B5:19:A7:98:56:B0:BE:3F:7D:47:DC:C0:1C:B4
            X509v3 Authority Key Identifier: 
                keyid:C4:11:A1:C9:F1:45:B5:19:A7:98:56:B0:BE:3F:7D:47:DC:C0:1C:B4
                DirName:/C=AU/ST=Some-State/O=Internet Widgits Pty Ltd
                serial:01

    Signature Algorithm: sha1WithRSAEncryption
        4b:ba:fa:73:f5:b7:c7:7c:e1:9b:59:1c:36:cb:b5:9b:65:22:
        22:cf:6d:72:ff:f9:9b:1f:b5:ff:44:19:9d:1e:13:40:8d:e4:
        9b:be:51:fa:49:21:61:7d:70:80:90:2c:6c:a6:34:d1:e0:18:
        fd:ae:01:1a:97:65:4b:50:42:ad:e4:c0:80:5c:0f:c5:80:87:
        c4:3d:e4:ad:f2:2f:d3:81:14:51:da:c7:39:83:eb:fe:a5:af:
        ce:b4:12:95:c9:25:3c:6f:f9:ae:af:70:d7:d6:0d:85:d6:6a:
        c3:e8:69:e0:8b:fb:20:6b:09:81:61:fb:40:c4:31:0f:3e:46:
        2b:ec:01:f0:2f:76:99:d9:6b:8f:5a:cb:a4:0d:f6:e9:93:72:
        b1:9f:8c:c1:3a:0d:25:7e:00:ae:74:4e:18:9f:ac:c8:b4:5d:
        90:c5:a4:f4:fc:16:da:31:16:74:33:b6:54:02:55:be:3a:97:
        43:ce:d3:18:55:92:be:9d:20:e2:12:b9:e7:db:f4:90:5d:6e:
        cb:cc:a9:59:da:7d:f0:c3:14:d3:3d:38:e6:d8:8d:db:22:9c:
        f0:8f:fb:e8:e9:da:0a:81:9b:7c:0c:36:ff:f7:a8:80:7a:dd:
        94:4c:c9:64:a0:0d:77:ca:7d:65:15:7f:ca:30:3a:72:2a:b8:
        b8:4e:7d:5e
-----BEGIN CERTIFICATE-----
MIIDpTCCAo2gAwIBAgIBATANBgkqhkiG9w0BAQUFADBFMQswCQYDVQQGEwJBVTET
MBEGA1UECBMKU29tZS1TdGF0ZTEhMB8GA1UEChMYSW50ZXJuZXQgV2lkZ2l0cyBQ
dHkgTHRkMB4XDTE1MDMwOTAyMjQwMloXDTIwMDMwODAyMjQwMlowRTELMAkGA1UE
BhMCQVUxEzARBgNVBAgTClNvbWUtU3RhdGUxITAfBgNVBAoTGEludGVybmV0IFdp
ZGdpdHMgUHR5IEx0ZDCCASIwDQYJKoZIhvcNAQEBBQADggEPADCCAQoCggEBAOGA
iJfbTaed9dbSvn4aKbfh/Uoo12N5QobwHPSKtbAO5Ah96I0ghez2mvX+jta2MBia
a7EajzNK/DQOgzqR+RbVqFFil3l6RjSB3Pjstb0LlsHfxCBwlsr4V1+aUpNFXXXl
AjJ4vmq32nzNKcjip0kcZMFBoK2HvvhBRjsX542hzTvhyewwH4cEnMzugMmPPwOW
MkWjCg+DsY67AtbE7xXYTrpoHrBtGtJ8mgpVMKJRAv/oUHj635RgrpYqp1h8Ho4V
Fg21kLRe9mVXaOgMq8NcAsoosxi71s0s4vjwpfN7NAoQqvPmj5h1SE6zeEDO4oDR
wlRRccEMCGhk2e7XoF8CAwEAAaOBnzCBnDAMBgNVHRMEBTADAQH/MB0GA1UdDgQW
BBTEEaHJ8UW1GaeYVrC+P31H3MActDBtBgNVHSMEZjBkgBTEEaHJ8UW1GaeYVrC+
P31H3MActKFJpEcwRTELMAkGA1UEBhMCQVUxEzARBgNVBAgTClNvbWUtU3RhdGUx
ITAfBgNVBAoTGEludGVybmV0IFdpZGdpdHMgUHR5IEx0ZIIBATANBgkqhkiG9w0B
AQUFAAOCAQEAS7r6c/W3x3zhm1kcNsu1m2UiIs9tcv/5mx+1/0QZnR4TQI3km75R
+kkhYX1wgJAsbKY00eAY/a4BGpdlS1BCreTAgFwPxYCHxD3krfIv04EUUdrHOYPr
/qWvzrQSlcklPG/5rq9w19YNhdZqw+hp4Iv7IGsJgWH7QMQxDz5GK+wB8C92mdlr
j1rLpA326ZNysZ+MwToNJX4ArnROGJ+syLRdkMWk9PwW2jEWdDO2VAJVvjqXQ87T
GFWSvp0g4hK559v0kF1uy8ypWdp98MMU0z045tiN2yKc8I/76OnaCoGbfAw2//eo
gHrdlEzJZKANd8p9ZRV/yjA6ciq4uE59Xg==
-----END CERTIFICATE-----
-----BEGIN RSA PRIVATE KEY-----
MIIEpAIBAAKCAQEAoe4SOloU4LP8a0+LyjmQT8gQAD5HQ8GVC13VHXFMggGlLqwY
ljaBnChIJpTOeSB+Zr5CmsvBUCKc8MK40Rb5GHb6lAf5zUVtsWT7QQ5/Xnp9STXO
xqWiHYQ68Xh7qSHTH97VFN7JkQB4IEMAl7GMwtISQfIkN35639WEI4SZ45Q6Jjxw
Mqh6A8+Av97fixMPEPGAVCBM6YfWB1N1mIDXbYs5xl7fzIUW5r7jyceWwJidjiU3
RSm/XxowhFpASnGfvTF+IJPdggN/3UqpvpK+1vU+dUxA6zwtUQ1CVBsReDcOlK5I
IQ2KNqwGR9+ueM+Y7nPS3xlNkItSPBw6xsFdywIDAQABAoIBAQCJWk1v3ZUz/Lex
tqmWgTld0w9vhWQhnwRzvcXV0ZLZ+9dHPYclc1qBQNHil/qDWAKf1+bbMtXoyVNi
DWmDQf9Mty9ZfWJwseGXxVYyGsADPdcj0FZyvXBDpTPyOwZ5sk1JDVSk/Uzwh/td
MjhAc8Q4RMRj16bMw6YqUwxgrEt0c57bUXhdAAYNt5+N4eb2dOmF1oHAFjs5i0B1
/u/Aet21Cp8fnthmiQlnpmNH7kBkPylqUMifatbyiiqiyTDnfrU1YGDPMwyeS5hO
nCXhlT37g/IrAMbo1GfhIzGrHWJppBkeSskvV4EtFXeONpbiGsVcqtZlK5pZqWyu
3pKywsTRAoGBANe7SB0aAsnMoG0WukQAXi3Qh3nXZhbtSwEAqK7gImmwl+GlnrTd
R0MABbPUn7hj/Zz/RHTBaZrjm6Q8Mr8o6U5TND+0wyFBtHMIHJ8nYfmSOCbfibX3
uRL7gAGZbJyuxhG6JRz68d67VMwZusUOsuLCqsuljBnla6zwGcjX4YtvAoGBAMAn
4jDldGPYVB+6fQzTpLdG4TChef2ejr09RLo3HjaypIpN8hi6iJs6KQ0dF/0TZRrp
QfOh19ILQKr3VbbACL45V6aztifBuLnpW4T/H5rHKBuiFpGTQi97rWuxnRsvOM+H
LIZPzMWp+C7vmwwPd1DQe5VNfeo6nveW6TqxXtVlAoGAFh0ukT0fWAxPzZ7szRe0
j8G2gXjhECyW6a1lnTeAj5D4oLrXf/bG3UldTEfZb49gaf2IyOciqiv2wmkhUpMh
B1RkILuo3PndQ4VrWa0xz+F7PBDiDvMr15RMVN2jUpRf3WVVdJkMviY51Qo2KQkO
sUv/MgzwRZ9M4FdkbUAj8KUCgYEAikzqZqjvQWGVApUVpeK6PdM9BuRhyeGR+LAd
RC2hiFrBRG3fXl77LUYJ/8890b9g2KKj/jcw/5NrwuFrhrHmWQsqg+f6pdivHNfR
MALze1H2ExVxSuuDCmvooIdgfQ1axTsUF8NdrbKs1xNLM7358WdsW0Q/6RKyEZ9D
VCQPDmUCgYBVmQvN//VfDxhBBvZiUHCWeKTkKRW/J7tLxvrQJ3D2s1Xnfd6zGGPH
r4CzJp0tMls9OUTI7xOI1l6fy8hu+WkUqavOKRHvn45GZ2QozVFotKxNWosRJj3z
QAbYjgoK+fRzBNzRaIA5WUFH081shcc0OVTcagDtib1xhcEpikAl7w==
-----END RSA PRIVATE KEY-----
